target datalayout = "e-m:e-p270:32:32-p271:32:32-p272:64:64-i64:64-i128:128-f80:128-n8:16:32:64-S128"
target triple = "x86_64-pc-linux-gnu"

%struct._value_string_ext = type { ptr, i32, i32, ptr, ptr }
%struct._packet_info = type { ptr, ptr, i32, i32, %struct.nstime_t, %struct.nstime_t, %struct.nstime_t, i8, ptr, ptr, ptr, ptr, %struct._address, %struct._address, %struct._address, %struct._address, %struct._address, %struct._address, i32, ptr, i8, [3 x i8], %struct.anon, i32, i32, i32, i32, ptr, i8, ptr, ptr, i16, i16, i32, i32, i16, i32, i32, ptr, ptr, ptr, i8, i8, i16, i16, i16, i32, i16, i16, ptr, ptr, ptr, ptr, ptr, i32, i32 }
%struct.nstime_t = type { i64, i32 }
%struct._address = type { i32, i32, ptr, ptr }
%struct.anon = type { i8, [3 x i8] }
%struct._uuid_t = type { i16, i8, [16 x i8] }
%struct._proto_node = type { ptr, ptr, ptr, ptr, ptr, ptr, ptr }
%struct.field_info = type { ptr, i32, i32, i32, i32, i32, i32, ptr, ptr, ptr, i32, i32 }

@hf_btl2cap_payload = internal global i32 0, align 4
@hf_btl2cap_psm = internal global i32 0, align 4
@hf_btl2cap_psm_dynamic = internal global i32 0, align 4
@bluetooth_uuid_vals_ext = external global %struct._value_string_ext, align 8
@proto_btl2cap = hidden global i32 0, align 4
@l2cap_psm_dissector_table = internal global ptr null, align 8
@l2cap_cid_dissector_table = internal global ptr null, align 8
@proto_bluetooth = external global i32, align 4
@bluetooth_uuid_table = external global ptr, align 8
@.str.453 = private unnamed_addr constant [28 x i8] c"Connection oriented channel\00", align 1
@.str.454 = private unnamed_addr constant [5 x i8] c": %s\00", align 1
@.str.455 = private unnamed_addr constant [16 x i8] c"Unknown service\00", align 1

; Function Attrs: inlinehint nounwind null_pointer_is_valid sspstrong uwtable
define internal void @proto_item_set_generated(ptr noundef %0) #7 {
  %2 = alloca ptr, align 8
  store ptr %0, ptr %2, align 8
  %3 = load ptr, ptr %2, align 8
  %4 = icmp ne ptr %3, null
  br i1 %4, label %5, label %24

5:                                                ; preds = %1
  br label %6

6:                                                ; preds = %5
  %7 = load ptr, ptr %2, align 8
  %8 = getelementptr inbounds nuw %struct._proto_node, ptr %7, i32 0, i32 5
  %9 = load ptr, ptr %8, align 8
  %10 = icmp ne ptr %9, null
  br i1 %10, label %11, label %22

11:                                               ; preds = %6
  %12 = load ptr, ptr %2, align 8
  %13 = getelementptr inbounds nuw %struct._proto_node, ptr %12, i32 0, i32 5
  %14 = load ptr, ptr %13, align 8
  %15 = getelementptr inbounds nuw %struct.field_info, ptr %14, i32 0, i32 6
  %16 = load i32, ptr %15, align 4
  %17 = or i32 %16, 2
  %18 = load ptr, ptr %2, align 8
  %19 = getelementptr inbounds nuw %struct._proto_node, ptr %18, i32 0, i32 5
  %20 = load ptr, ptr %19, align 8
  %21 = getelementptr inbounds nuw %struct.field_info, ptr %20, i32 0, i32 6
  store i32 %17, ptr %21, align 4
  br label %22

22:                                               ; preds = %11, %6
  br label %23

23:                                               ; preds = %22
  br label %24

24:                                               ; preds = %23, %1
  ret void
}

; Function Attrs: null_pointer_is_valid sspstrong uwtable
define internal i32 @dissect_b_frame(ptr noundef %0, ptr noundef %1, ptr noundef %2, ptr noundef %3, i16 noundef zeroext %4, i16 noundef zeroext %5, i1 noundef zeroext %6, i16 noundef zeroext %7, i32 noundef %8, ptr noundef %9) #1 {
  %11 = alloca ptr, align 8
  %12 = alloca ptr, align 8
  %13 = alloca ptr, align 8
  %14 = alloca ptr, align 8
  %15 = alloca i16, align 2
  %16 = alloca i16, align 2
  %17 = alloca i8, align 1
  %18 = alloca i16, align 2
  %19 = alloca i32, align 4
  %20 = alloca ptr, align 8
  %21 = alloca ptr, align 8
  %22 = alloca ptr, align 8
  %23 = alloca i16, align 2
  %24 = alloca %struct._uuid_t, align 2
  %25 = alloca ptr, align 8
  %26 = alloca ptr, align 8
  store ptr %0, ptr %11, align 8
  store ptr %1, ptr %12, align 8
  store ptr %2, ptr %13, align 8
  store ptr %3, ptr %14, align 8
  store i16 %4, ptr %15, align 2
  store i16 %5, ptr %16, align 2
  %27 = zext i1 %6 to i8
  store i8 %27, ptr %17, align 1
  store i16 %7, ptr %18, align 2
  store i32 %8, ptr %19, align 4
  store ptr %9, ptr %20, align 8
  call void @llvm.lifetime.start.p0(i64 8, ptr %21) #9
  %28 = load ptr, ptr %11, align 8
  %29 = load i32, ptr %19, align 4
  %30 = load ptr, ptr %11, align 8
  %31 = load i32, ptr %19, align 4
  %32 = call i32 @tvb_captured_length_remaining(ptr noundef %30, i32 noundef %31)
  %33 = load i16, ptr %18, align 2
  %34 = zext i16 %33 to i32
  %35 = call ptr @tvb_new_subset_length_caplen(ptr noundef %28, i32 noundef %29, i32 noundef %32, i32 noundef %34)
  store ptr %35, ptr %21, align 8
  %36 = load ptr, ptr %12, align 8
  %37 = getelementptr inbounds nuw %struct._packet_info, ptr %36, i32 0, i32 1
  %38 = load ptr, ptr %37, align 8
  call void @col_append_str(ptr noundef %38, i32 noundef 25, ptr noundef @.str.453)
  %39 = load i16, ptr %16, align 2
  %40 = icmp ne i16 %39, 0
  br i1 %40, label %41, label %182

41:                                               ; preds = %10
  call void @llvm.lifetime.start.p0(i64 8, ptr %22) #9
  call void @llvm.lifetime.start.p0(i64 2, ptr %23) #9
  call void @llvm.lifetime.start.p0(i64 20, ptr %24) #9
  %42 = load ptr, ptr %12, align 8
  %43 = getelementptr inbounds nuw %struct._packet_info, ptr %42, i32 0, i32 51
  %44 = load ptr, ptr %43, align 8
  %45 = load ptr, ptr %12, align 8
  %46 = load i32, ptr @proto_btl2cap, align 4
  %47 = call ptr @p_get_proto_data(ptr noundef %44, ptr noundef %45, i32 noundef %46, i32 noundef 1)
  %48 = icmp eq ptr %47, null
  br i1 %48, label %49, label %60

49:                                               ; preds = %41
  call void @llvm.lifetime.start.p0(i64 8, ptr %25) #9
  %50 = call ptr @wmem_file_scope()
  %51 = call noalias ptr @wmem_alloc(ptr noundef %50, i64 noundef 2) #10
  store ptr %51, ptr %25, align 8
  %52 = load i16, ptr %16, align 2
  %53 = load ptr, ptr %25, align 8
  store i16 %52, ptr %53, align 2
  %54 = load ptr, ptr %12, align 8
  %55 = getelementptr inbounds nuw %struct._packet_info, ptr %54, i32 0, i32 51
  %56 = load ptr, ptr %55, align 8
  %57 = load ptr, ptr %12, align 8
  %58 = load i32, ptr @proto_btl2cap, align 4
  %59 = load ptr, ptr %25, align 8
  call void @p_add_proto_data(ptr noundef %56, ptr noundef %57, i32 noundef %58, i32 noundef 1, ptr noundef %59)
  call void @llvm.lifetime.end.p0(i64 8, ptr %25) #9
  br label %60

60:                                               ; preds = %49, %41
  %61 = load ptr, ptr %12, align 8
  %62 = load ptr, ptr %20, align 8
  %63 = load i16, ptr %16, align 2
  %64 = load i8, ptr %17, align 1, !range !6, !noundef !7
  %65 = trunc i8 %64 to i1
  %66 = call zeroext i16 @get_service_uuid(ptr noundef %61, ptr noundef %62, i16 noundef zeroext %63, i1 noundef zeroext %65)
  store i16 %66, ptr %23, align 2
  %67 = getelementptr inbounds nuw %struct._uuid_t, ptr %24, i32 0, i32 1
  store i8 2, ptr %67, align 2
  %68 = load i16, ptr %23, align 2
  %69 = getelementptr inbounds nuw %struct._uuid_t, ptr %24, i32 0, i32 0
  store i16 %68, ptr %69, align 2
  %70 = load i16, ptr %23, align 2
  %71 = zext i16 %70 to i32
  %72 = ashr i32 %71, 8
  %73 = trunc i32 %72 to i8
  %74 = getelementptr inbounds nuw %struct._uuid_t, ptr %24, i32 0, i32 2
  %75 = getelementptr [16 x i8], ptr %74, i64 0, i64 0
  store i8 %73, ptr %75, align 1
  %76 = load i16, ptr %23, align 2
  %77 = zext i16 %76 to i32
  %78 = and i32 %77, 255
  %79 = trunc i32 %78 to i8
  %80 = getelementptr inbounds nuw %struct._uuid_t, ptr %24, i32 0, i32 2
  %81 = getelementptr [16 x i8], ptr %80, i64 0, i64 1
  store i8 %79, ptr %81, align 1
  %82 = load i16, ptr %23, align 2
  %83 = zext i16 %82 to i32
  %84 = icmp ne i32 %83, 0
  br i1 %84, label %85, label %106

85:                                               ; preds = %60
  %86 = load ptr, ptr %12, align 8
  %87 = getelementptr inbounds nuw %struct._packet_info, ptr %86, i32 0, i32 51
  %88 = load ptr, ptr %87, align 8
  %89 = load ptr, ptr %12, align 8
  %90 = load i32, ptr @proto_bluetooth, align 4
  %91 = call ptr @p_get_proto_data(ptr noundef %88, ptr noundef %89, i32 noundef %90, i32 noundef 0)
  %92 = icmp eq ptr %91, null
  br i1 %92, label %93, label %106

93:                                               ; preds = %85
  call void @llvm.lifetime.start.p0(i64 8, ptr %26) #9
  %94 = call ptr @wmem_file_scope()
  %95 = load ptr, ptr %12, align 8
  %96 = getelementptr inbounds nuw %struct._packet_info, ptr %95, i32 0, i32 51
  %97 = load ptr, ptr %96, align 8
  %98 = call ptr @print_numeric_bluetooth_uuid(ptr noundef %97, ptr noundef %24)
  %99 = call noalias ptr @wmem_strdup(ptr noundef %94, ptr noundef %98)
  store ptr %99, ptr %26, align 8
  %100 = load ptr, ptr %12, align 8
  %101 = getelementptr inbounds nuw %struct._packet_info, ptr %100, i32 0, i32 51
  %102 = load ptr, ptr %101, align 8
  %103 = load ptr, ptr %12, align 8
  %104 = load i32, ptr @proto_bluetooth, align 4
  %105 = load ptr, ptr %26, align 8
  call void @p_add_proto_data(ptr noundef %102, ptr noundef %103, i32 noundef %104, i32 noundef 0, ptr noundef %105)
  call void @llvm.lifetime.end.p0(i64 8, ptr %26) #9
  br label %106

106:                                              ; preds = %93, %85, %60
  %107 = load i16, ptr %16, align 2
  %108 = zext i16 %107 to i32
  %109 = icmp slt i32 %108, 4096
  br i1 %109, label %110, label %118

110:                                              ; preds = %106
  %111 = load ptr, ptr %14, align 8
  %112 = load i32, ptr @hf_btl2cap_psm, align 4
  %113 = load ptr, ptr %11, align 8
  %114 = load i32, ptr %19, align 4
  %115 = load i16, ptr %16, align 2
  %116 = zext i16 %115 to i32
  %117 = call ptr @proto_tree_add_uint(ptr noundef %111, i32 noundef %112, ptr noundef %113, i32 noundef %114, i32 noundef 0, i32 noundef %116)
  store ptr %117, ptr %22, align 8
  br label %136

118:                                              ; preds = %106
  %119 = load ptr, ptr %14, align 8
  %120 = load i32, ptr @hf_btl2cap_psm_dynamic, align 4
  %121 = load ptr, ptr %11, align 8
  %122 = load i32, ptr %19, align 4
  %123 = load i16, ptr %16, align 2
  %124 = zext i16 %123 to i32
  %125 = call ptr @proto_tree_add_uint(ptr noundef %119, i32 noundef %120, ptr noundef %121, i32 noundef %122, i32 noundef 0, i32 noundef %124)
  store ptr %125, ptr %22, align 8
  %126 = getelementptr inbounds nuw %struct._uuid_t, ptr %24, i32 0, i32 0
  %127 = load i16, ptr %126, align 2
  %128 = icmp ne i16 %127, 0
  br i1 %128, label %129, label %135

129:                                              ; preds = %118
  %130 = load ptr, ptr %22, align 8
  %131 = getelementptr inbounds nuw %struct._uuid_t, ptr %24, i32 0, i32 0
  %132 = load i16, ptr %131, align 2
  %133 = zext i16 %132 to i32
  %134 = call ptr @val_to_str_ext_const(i32 noundef %133, ptr noundef @bluetooth_uuid_vals_ext, ptr noundef @.str.455)
  call void (ptr, ptr, ...) @proto_item_append_text(ptr noundef %130, ptr noundef @.str.454, ptr noundef %134)
  br label %135

135:                                              ; preds = %129, %118
  br label %136

136:                                              ; preds = %135, %110
  %137 = load ptr, ptr %22, align 8
  call void @proto_item_set_generated(ptr noundef %137)
  %138 = load ptr, ptr @l2cap_cid_dissector_table, align 8
  %139 = load i16, ptr %15, align 2
  %140 = zext i16 %139 to i32
  %141 = load ptr, ptr %21, align 8
  %142 = load ptr, ptr %12, align 8
  %143 = load ptr, ptr %13, align 8
  %144 = load ptr, ptr %20, align 8
  %145 = call i32 @dissector_try_uint_with_data(ptr noundef %138, i32 noundef %140, ptr noundef %141, ptr noundef %142, ptr noundef %143, i1 noundef zeroext true, ptr noundef %144)
  %146 = icmp ne i32 %145, 0
  br i1 %146, label %179, label %147

147:                                              ; preds = %136
  %148 = load ptr, ptr @l2cap_psm_dissector_table, align 8
  %149 = load i16, ptr %16, align 2
  %150 = zext i16 %149 to i32
  %151 = load ptr, ptr %21, align 8
  %152 = load ptr, ptr %12, align 8
  %153 = load ptr, ptr %13, align 8
  %154 = load ptr, ptr %20, align 8
  %155 = call i32 @dissector_try_uint_with_data(ptr noundef %148, i32 noundef %150, ptr noundef %151, ptr noundef %152, ptr noundef %153, i1 noundef zeroext true, ptr noundef %154)
  %156 = icmp ne i32 %155, 0
  br i1 %156, label %178, label %157

157:                                              ; preds = %147
  %158 = load ptr, ptr @bluetooth_uuid_table, align 8
  %159 = load ptr, ptr %12, align 8
  %160 = getelementptr inbounds nuw %struct._packet_info, ptr %159, i32 0, i32 51
  %161 = load ptr, ptr %160, align 8
  %162 = call ptr @print_numeric_bluetooth_uuid(ptr noundef %161, ptr noundef %24)
  %163 = load ptr, ptr %21, align 8
  %164 = load ptr, ptr %12, align 8
  %165 = load ptr, ptr %13, align 8
  %166 = load ptr, ptr %20, align 8
  %167 = call i32 @dissector_try_string_with_data(ptr noundef %158, ptr noundef %162, ptr noundef %163, ptr noundef %164, ptr noundef %165, i1 noundef zeroext true, ptr noundef %166)
  %168 = icmp ne i32 %167, 0
  br i1 %168, label %177, label %169

169:                                              ; preds = %157
  %170 = load ptr, ptr %14, align 8
  %171 = load i32, ptr @hf_btl2cap_payload, align 4
  %172 = load ptr, ptr %11, align 8
  %173 = load i32, ptr %19, align 4
  %174 = load i16, ptr %18, align 2
  %175 = zext i16 %174 to i32
  %176 = call ptr @proto_tree_add_item(ptr noundef %170, i32 noundef %171, ptr noundef %172, i32 noundef %173, i32 noundef %175, i32 noundef 0)
  br label %177

177:                                              ; preds = %169, %157
  br label %178

178:                                              ; preds = %177, %147
  br label %179

179:                                              ; preds = %178, %136
  %180 = load ptr, ptr %11, align 8
  %181 = call i32 @tvb_captured_length(ptr noundef %180)
  store i32 %181, ptr %19, align 4
  call void @llvm.lifetime.end.p0(i64 20, ptr %24) #9
  call void @llvm.lifetime.end.p0(i64 2, ptr %23) #9
  call void @llvm.lifetime.end.p0(i64 8, ptr %22) #9
  br label %203

182:                                              ; preds = %10
  %183 = load ptr, ptr @l2cap_cid_dissector_table, align 8
  %184 = load i16, ptr %15, align 2
  %185 = zext i16 %184 to i32
  %186 = load ptr, ptr %21, align 8
  %187 = load ptr, ptr %12, align 8
  %188 = load ptr, ptr %13, align 8
  %189 = load ptr, ptr %20, align 8
  %190 = call i32 @dissector_try_uint_with_data(ptr noundef %183, i32 noundef %185, ptr noundef %186, ptr noundef %187, ptr noundef %188, i1 noundef zeroext true, ptr noundef %189)
  %191 = icmp ne i32 %190, 0
  br i1 %191, label %200, label %192

192:                                              ; preds = %182
  %193 = load ptr, ptr %14, align 8
  %194 = load i32, ptr @hf_btl2cap_payload, align 4
  %195 = load ptr, ptr %11, align 8
  %196 = load i32, ptr %19, align 4
  %197 = load i16, ptr %18, align 2
  %198 = zext i16 %197 to i32
  %199 = call ptr @proto_tree_add_item(ptr noundef %193, i32 noundef %194, ptr noundef %195, i32 noundef %196, i32 noundef %198, i32 noundef 0)
  br label %200

200:                                              ; preds = %192, %182
  %201 = load ptr, ptr %11, align 8
  %202 = call i32 @tvb_captured_length(ptr noundef %201)
  store i32 %202, ptr %19, align 4
  br label %203

203:                                              ; preds = %200, %179
  %204 = load i32, ptr %19, align 4
  call void @llvm.lifetime.end.p0(i64 8, ptr %21) #9
  ret i32 %204
}