; Function Attrs: null_pointer_is_valid sspstrong uwtable
define internal fastcc i32 @dissect_b_frame(ptr noundef %0, ptr noundef %1, ptr noundef %2, ptr noundef %3, i16 noundef zeroext %4, i16 noundef zeroext %5, i1 noundef zeroext %6, i16 noundef zeroext %7, ptr noundef %8) unnamed_addr #1 {
  %10 = alloca %struct._uuid_t, align 2
  %11 = tail call i32 @tvb_captured_length_remaining(ptr noundef %0, i32 noundef 4)
  %12 = zext i16 %7 to i32
  %13 = tail call ptr @tvb_new_subset_length_caplen(ptr noundef %0, i32 noundef 4, i32 noundef %11, i32 noundef %12)
  %14 = getelementptr inbounds nuw i8, ptr %1, i64 8
  %15 = load ptr, ptr %14, align 8
  tail call void @col_append_str(ptr noundef %15, i32 noundef 25, ptr noundef nonnull @.str.453)
  %.not = icmp eq i16 %5, 0
  br i1 %.not, label %84, label %16

16:                                               ; preds = %9
  call void @llvm.lifetime.start.p0(i64 20, ptr nonnull %10) #9
  %17 = getelementptr inbounds nuw i8, ptr %1, i64 408
  %18 = load ptr, ptr %17, align 8
  %19 = load i32, ptr @proto_btl2cap, align 4
  %20 = tail call ptr @p_get_proto_data(ptr noundef %18, ptr noundef %1, i32 noundef %19, i32 noundef 1)
  %21 = icmp eq ptr %20, null
  br i1 %21, label %22, label %27

22:                                               ; preds = %16
  %23 = tail call ptr @wmem_file_scope()
  %24 = tail call noalias dereferenceable_or_null(2) ptr @wmem_alloc(ptr noundef %23, i64 noundef 2) #8
  store i16 %5, ptr %24, align 2
  %25 = load ptr, ptr %17, align 8
  %26 = load i32, ptr @proto_btl2cap, align 4
  tail call void @p_add_proto_data(ptr noundef %25, ptr noundef %1, i32 noundef %26, i32 noundef 1, ptr noundef %24)
  br label %27

27:                                               ; preds = %22, %16
  %28 = tail call fastcc zeroext i16 @get_service_uuid(ptr noundef %1, ptr noundef %8, i16 noundef zeroext %5, i1 noundef zeroext %6)
  %29 = getelementptr inbounds nuw i8, ptr %10, i64 2
  store i8 2, ptr %29, align 2
  store i16 %28, ptr %10, align 2
  %30 = lshr i16 %28, 8
  %31 = trunc nuw i16 %30 to i8
  %32 = getelementptr inbounds nuw i8, ptr %10, i64 3
  store i8 %31, ptr %32, align 1
  %33 = trunc i16 %28 to i8
  %34 = getelementptr inbounds nuw i8, ptr %10, i64 4
  store i8 %33, ptr %34, align 2
  %.not74 = icmp eq i16 %28, 0
  br i1 %.not74, label %47, label %35

35:                                               ; preds = %27
  %36 = load ptr, ptr %17, align 8
  %37 = load i32, ptr @proto_bluetooth, align 4
  %38 = tail call ptr @p_get_proto_data(ptr noundef %36, ptr noundef %1, i32 noundef %37, i32 noundef 0)
  %39 = icmp eq ptr %38, null
  br i1 %39, label %40, label %47

40:                                               ; preds = %35
  %41 = tail call ptr @wmem_file_scope()
  %42 = load ptr, ptr %17, align 8
  %43 = call ptr @print_numeric_bluetooth_uuid(ptr noundef %42, ptr noundef nonnull %10)
  %44 = call noalias ptr @wmem_strdup(ptr noundef %41, ptr noundef %43)
  %45 = load ptr, ptr %17, align 8
  %46 = load i32, ptr @proto_bluetooth, align 4
  call void @p_add_proto_data(ptr noundef %45, ptr noundef %1, i32 noundef %46, i32 noundef 0, ptr noundef %44)
  br label %47

47:                                               ; preds = %40, %35, %27
  %48 = zext i16 %5 to i32
  %49 = icmp ult i16 %5, 4096
  br i1 %49, label %50, label %53

50:                                               ; preds = %47
  %51 = load i32, ptr @hf_btl2cap_psm, align 4
  %52 = call ptr @proto_tree_add_uint(ptr noundef %3, i32 noundef %51, ptr noundef %0, i32 noundef 4, i32 noundef 0, i32 noundef %48)
  br label %60

53:                                               ; preds = %47
  %54 = load i32, ptr @hf_btl2cap_psm_dynamic, align 4
  %55 = call ptr @proto_tree_add_uint(ptr noundef %3, i32 noundef %54, ptr noundef %0, i32 noundef 4, i32 noundef 0, i32 noundef %48)
  %56 = load i16, ptr %10, align 2
  %.not75 = icmp eq i16 %56, 0
  br i1 %.not75, label %60, label %57

57:                                               ; preds = %53
  %58 = zext i16 %56 to i32
  %59 = call ptr @val_to_str_ext_const(i32 noundef %58, ptr noundef nonnull @bluetooth_uuid_vals_ext, ptr noundef nonnull @.str.455)
  call void (ptr, ptr, ...) @proto_item_append_text(ptr noundef %55, ptr noundef nonnull @.str.454, ptr noundef %59)
  br label %60

60:                                               ; preds = %53, %57, %50
  %.069 = phi ptr [ %52, %50 ], [ %55, %57 ], [ %55, %53 ]
  %.not.i = icmp eq ptr %.069, null
  br i1 %.not.i, label %proto_item_set_generated.exit, label %61

61:                                               ; preds = %60
  %62 = getelementptr inbounds nuw i8, ptr %.069, i64 40
  %63 = load ptr, ptr %62, align 8
  %.not5.i = icmp eq ptr %63, null
  br i1 %.not5.i, label %proto_item_set_generated.exit, label %64

64:                                               ; preds = %61
  %65 = getelementptr inbounds nuw i8, ptr %63, i64 28
  %66 = load i32, ptr %65, align 4
  %67 = or i32 %66, 2
  store i32 %67, ptr %65, align 4
  br label %proto_item_set_generated.exit

proto_item_set_generated.exit:                    ; preds = %60, %61, %64
  %68 = load ptr, ptr @l2cap_cid_dissector_table, align 8
  %69 = zext i16 %4 to i32
  %70 = call i32 @dissector_try_uint_with_data(ptr noundef %68, i32 noundef %69, ptr noundef %13, ptr noundef %1, ptr noundef %2, i1 noundef zeroext true, ptr noundef %8)
  %.not76 = icmp eq i32 %70, 0
  br i1 %.not76, label %71, label %82

71:                                               ; preds = %proto_item_set_generated.exit
  %72 = load ptr, ptr @l2cap_psm_dissector_table, align 8
  %73 = call i32 @dissector_try_uint_with_data(ptr noundef %72, i32 noundef %48, ptr noundef %13, ptr noundef %1, ptr noundef %2, i1 noundef zeroext true, ptr noundef %8)
  %.not77 = icmp eq i32 %73, 0
  br i1 %.not77, label %74, label %82

74:                                               ; preds = %71
  %75 = load ptr, ptr @bluetooth_uuid_table, align 8
  %76 = load ptr, ptr %17, align 8
  %77 = call ptr @print_numeric_bluetooth_uuid(ptr noundef %76, ptr noundef nonnull %10)
  %78 = call i32 @dissector_try_string_with_data(ptr noundef %75, ptr noundef %77, ptr noundef %13, ptr noundef %1, ptr noundef %2, i1 noundef zeroext true, ptr noundef %8)
  %.not78 = icmp eq i32 %78, 0
  br i1 %.not78, label %79, label %82

79:                                               ; preds = %74
  %80 = load i32, ptr @hf_btl2cap_payload, align 4
  %81 = call ptr @proto_tree_add_item(ptr noundef %3, i32 noundef %80, ptr noundef %0, i32 noundef 4, i32 noundef %12, i32 noundef 0)
  br label %82

82:                                               ; preds = %71, %79, %74, %proto_item_set_generated.exit
  %83 = call i32 @tvb_captured_length(ptr noundef %0)
  call void @llvm.lifetime.end.p0(i64 20, ptr nonnull %10) #9
  br label %93

84:                                               ; preds = %9
  %85 = load ptr, ptr @l2cap_cid_dissector_table, align 8
  %86 = zext i16 %4 to i32
  %87 = tail call i32 @dissector_try_uint_with_data(ptr noundef %85, i32 noundef %86, ptr noundef %13, ptr noundef %1, ptr noundef %2, i1 noundef zeroext true, ptr noundef %8)
  %.not73 = icmp eq i32 %87, 0
  br i1 %.not73, label %88, label %91

88:                                               ; preds = %84
  %89 = load i32, ptr @hf_btl2cap_payload, align 4
  %90 = tail call ptr @proto_tree_add_item(ptr noundef %3, i32 noundef %89, ptr noundef %0, i32 noundef 4, i32 noundef %12, i32 noundef 0)
  br label %91

91:                                               ; preds = %88, %84
  %92 = tail call i32 @tvb_captured_length(ptr noundef %0)
  br label %93

93:                                               ; preds = %91, %82
  %.0 = phi i32 [ %83, %82 ], [ %92, %91 ]
  ret i32 %.0
}